target datalayout = "e-m:e-p270:32:32-p271:32:32-p272:64:64-i64:64-i128:128-f80:128-n8:16:32:64-S128"
target triple = "x86_64-pc-linux-gnu"

%struct.evbuffer_chain = type { ptr, i64, i64, i64, i32, i32, ptr }

; Function Attrs: nounwind uwtable
define hidden void @evbuffer_chain_unpin_(ptr noundef %0, i32 noundef %1) #0 {
  %3 = alloca ptr, align 8
  %4 = alloca i32, align 4
  store ptr %0, ptr %3, align 8
  store i32 %1, ptr %4, align 4
  br label %5

5:                                                ; preds = %2
  br label %6

6:                                                ; preds = %5
  %7 = load i32, ptr %4, align 4
  %8 = xor i32 %7, -1
  %9 = load ptr, ptr %3, align 8
  %10 = getelementptr inbounds nuw %struct.evbuffer_chain, ptr %9, i32 0, i32 4
  %11 = load i32, ptr %10, align 8
  %12 = and i32 %11, %8
  store i32 %12, ptr %10, align 8
  %13 = load ptr, ptr %3, align 8
  %14 = getelementptr inbounds nuw %struct.evbuffer_chain, ptr %13, i32 0, i32 4
  %15 = load i32, ptr %14, align 8
  %16 = and i32 %15, 64
  %17 = icmp ne i32 %16, 0
  br i1 %17, label %18, label %20

18:                                               ; preds = %6
  %19 = load ptr, ptr %3, align 8
  call void @evbuffer_chain_free(ptr noundef %19)
  br label %20

20:                                               ; preds = %18, %6
  ret void
}