; Function Attrs: nounwind uwtable
define hidden void @evbuffer_chain_unpin_(ptr noundef %0, i32 noundef %1) local_unnamed_addr #1 {
  %3 = xor i32 %1, -1
  %4 = getelementptr inbounds nuw i8, ptr %0, i64 32
  %5 = load i32, ptr %4, align 8
  %6 = and i32 %5, %3
  store i32 %6, ptr %4, align 8
  %7 = and i32 %6, 64
  %.not = icmp eq i32 %7, 0
  br i1 %.not, label %9, label %8

8:                                                ; preds = %2
  tail call fastcc void @evbuffer_chain_free(ptr noundef nonnull %0)
  br label %9

9:                                                ; preds = %8, %2
  ret void
}